target datalayout = "e-m:e-p270:32:32-p271:32:32-p272:64:64-i64:64-i128:128-f80:128-n8:16:32:64-S128"
target triple = "x86_64-pc-linux-gnu"

%"class.mitsuba::Object.base" = type <{ ptr, %"struct.std::__1::atomic" }>
%"struct.std::__1::atomic" = type { %"struct.std::__1::__atomic_base" }
%"struct.std::__1::__atomic_base" = type { %"struct.std::__1::__atomic_base.0" }
%"struct.std::__1::__atomic_base.0" = type { %"struct.std::__1::__cxx_atomic_impl" }
%"struct.std::__1::__cxx_atomic_impl" = type { %"struct.std::__1::__cxx_atomic_base_impl" }
%"struct.std::__1::__cxx_atomic_base_impl" = type { i32 }
%"class.std::__1::basic_string" = type { %"class.std::__1::__compressed_pair.25" }
%"class.std::__1::__compressed_pair.25" = type { %"struct.std::__1::__compressed_pair_elem.26" }
%"struct.std::__1::__compressed_pair_elem.26" = type { %"struct.std::__1::basic_string<char>::__rep" }
%"struct.std::__1::basic_string<char>::__rep" = type { %union.anon }
%union.anon = type { %"struct.std::__1::basic_string<char>::__long" }
%"struct.std::__1::basic_string<char>::__long" = type { %struct.anon.27, i64, ptr }
%struct.anon.27 = type { i64 }
%"class.mitsuba::Logger" = type { %"class.mitsuba::Object.base", i32, %"class.std::__1::unique_ptr.221" }
%"class.std::__1::unique_ptr.221" = type { %"class.std::__1::__compressed_pair.222" }
%"class.std::__1::__compressed_pair.222" = type { %"struct.std::__1::__compressed_pair_elem.223" }
%"struct.std::__1::__compressed_pair_elem.223" = type { ptr }

@.str.10 = private unnamed_addr constant [115 x i8] c"generated/home/dtcxzyw/WorkSpace/Projects/compilers/llvm-opt-benchmark/bench/mitsuba3/mitsuba3/src/core/bitmap.cpp\00", align 1
@_ZN7mitsuba7m_classE = external global ptr, align 8
@.str.174 = private unnamed_addr constant [35 x i8] c"iCCP: known incorrect sRGB profile\00", align 1
@.str.175 = private unnamed_addr constant [20 x i8] c"libpng warning: %s\0A\00", align 1

; Function Attrs: mustprogress nounwind uwtable
define linkonce_odr noundef i32 @_ZNK7mitsuba6Logger9log_levelEv(ptr noundef nonnull align 8 dereferenceable(24) %0) #1 comdat align 2 {
  %2 = alloca ptr, align 8
  store ptr %0, ptr %2, align 8
  %3 = load ptr, ptr %2, align 8
  %4 = getelementptr inbounds %"class.mitsuba::Logger", ptr %3, i32 0, i32 1
  %5 = load i32, ptr %4, align 4
  ret i32 %5
}

; Function Attrs: mustprogress uwtable
define internal void @_ZN7mitsubaL13png_warn_funcEP14png_struct_defPKc(ptr noundef %0, ptr noundef %1) #0 personality ptr @__gxx_personality_v0 {
  %3 = alloca i32, align 4
  %4 = alloca ptr, align 8
  %5 = alloca ptr, align 8
  %6 = alloca i32, align 4
  %7 = alloca ptr, align 8
  %8 = alloca ptr, align 8
  %9 = alloca ptr, align 8
  %10 = alloca %"class.std::__1::basic_string", align 8
  %11 = alloca ptr, align 8
  %12 = alloca i32, align 4
  %13 = alloca ptr, align 8
  %14 = alloca ptr, align 8
  store ptr %0, ptr %13, align 8
  store ptr %1, ptr %14, align 8
  %15 = load ptr, ptr %14, align 8
  %16 = call noundef ptr @strstr(ptr noundef %15, ptr noundef @.str.174) #10
  %17 = icmp ne ptr %16, null
  br i1 %17, label %18, label %19

18:                                               ; preds = %2
  br label %49

19:                                               ; preds = %2
  br label %20

20:                                               ; preds = %19
  %21 = load ptr, ptr @_ZN7mitsuba7m_classE, align 8
  store i32 300, ptr %3, align 4
  store ptr %21, ptr %4, align 8
  store ptr @.str.10, ptr %5, align 8
  store i32 1672, ptr %6, align 4
  store ptr @.str.175, ptr %7, align 8
  store ptr %14, ptr %8, align 8
  %22 = call noundef ptr @_ZN7mitsuba6Thread6threadEv()
  %23 = call noundef ptr @_ZN7mitsuba6Thread6loggerEv(ptr noundef nonnull align 8 dereferenceable(24) %22)
  store ptr %23, ptr %9, align 8
  %24 = load ptr, ptr %9, align 8
  %25 = icmp ne ptr %24, null
  br i1 %25, label %26, label %48

26:                                               ; preds = %20
  %27 = load i32, ptr %3, align 4
  %28 = load ptr, ptr %9, align 8
  %29 = call noundef i32 @_ZNK7mitsuba6Logger9log_levelEv(ptr noundef nonnull align 8 dereferenceable(24) %28)
  %30 = icmp sge i32 %27, %29
  br i1 %30, label %31, label %48

31:                                               ; preds = %26
  %32 = load ptr, ptr %9, align 8
  %33 = load i32, ptr %3, align 4
  %34 = load ptr, ptr %4, align 8
  %35 = load ptr, ptr %5, align 8
  %36 = load i32, ptr %6, align 4
  %37 = load ptr, ptr %7, align 8
  %38 = load ptr, ptr %8, align 8
  call void @_ZN10tinyformat6formatIJPKcEEENSt3__112basic_stringIcNS3_11char_traitsIcEENS3_9allocatorIcEEEES2_DpRKT_(ptr dead_on_unwind writable sret(%"class.std::__1::basic_string") align 8 %10, ptr noundef %37, ptr noundef nonnull align 8 dereferenceable(8) %38)
  invoke void @_ZN7mitsuba6Logger3logENS_8LogLevelEPKNS_5ClassEPKciRKNSt3__112basic_stringIcNS7_11char_traitsIcEENS7_9allocatorIcEEEE(ptr noundef nonnull align 8 dereferenceable(24) %32, i32 noundef %33, ptr noundef %34, ptr noundef %35, i32 noundef %36, ptr noundef nonnull align 8 dereferenceable(24) %10)
          to label %39 unwind label %40

39:                                               ; preds = %31
  call void @_ZNSt3__112basic_stringIcNS_11char_traitsIcEENS_9allocatorIcEEED1Ev(ptr noundef nonnull align 8 dereferenceable(24) %10) #29
  br label %48

40:                                               ; preds = %31
  %41 = landingpad { ptr, i32 }
          cleanup
  %42 = extractvalue { ptr, i32 } %41, 0
  store ptr %42, ptr %11, align 8
  %43 = extractvalue { ptr, i32 } %41, 1
  store i32 %43, ptr %12, align 4
  call void @_ZNSt3__112basic_stringIcNS_11char_traitsIcEENS_9allocatorIcEEED1Ev(ptr noundef nonnull align 8 dereferenceable(24) %10) #29
  %44 = load ptr, ptr %11, align 8
  %45 = load i32, ptr %12, align 4
  %46 = insertvalue { ptr, i32 } poison, ptr %44, 0
  %47 = insertvalue { ptr, i32 } %46, i32 %45, 1
  resume { ptr, i32 } %47

48:                                               ; preds = %39, %26, %20
  br label %49

49:                                               ; preds = %48, %18
  ret void
}