; Function Attrs: mustprogress uwtable
define internal void @_ZN7mitsubaL13png_warn_funcEP14png_struct_defPKc(ptr nocapture readnone %0, ptr noundef %1) #0 personality ptr @__gxx_personality_v0 {
  %3 = alloca %"class.std::__1::basic_string", align 8
  %4 = alloca ptr, align 8
  store ptr %1, ptr %4, align 8
  %5 = tail call noundef ptr @strstr(ptr noundef nonnull dereferenceable(1) %1, ptr noundef nonnull dereferenceable(1) @.str.174) #40
  %.not = icmp eq ptr %5, null
  br i1 %.not, label %6, label %18

6:                                                ; preds = %2
  %7 = load ptr, ptr @_ZN7mitsuba7m_classE, align 8
  %8 = tail call noundef ptr @_ZN7mitsuba6Thread6threadEv()
  %9 = tail call noundef ptr @_ZN7mitsuba6Thread6loggerEv(ptr noundef nonnull align 8 dereferenceable(24) %8)
  %.not11 = icmp eq ptr %9, null
  br i1 %.not11, label %18, label %10

10:                                               ; preds = %6
  %11 = getelementptr inbounds i8, ptr %9, i64 12
  %12 = load i32, ptr %11, align 4
  %13 = icmp slt i32 %12, 301
  br i1 %13, label %14, label %18

14:                                               ; preds = %10
  call void @_ZN10tinyformat6formatIJPKcEEENSt3__112basic_stringIcNS3_11char_traitsIcEENS3_9allocatorIcEEEES2_DpRKT_(ptr dead_on_unwind nonnull writable sret(%"class.std::__1::basic_string") align 8 %3, ptr noundef nonnull @.str.175, ptr noundef nonnull align 8 dereferenceable(8) %4)
  invoke void @_ZN7mitsuba6Logger3logENS_8LogLevelEPKNS_5ClassEPKciRKNSt3__112basic_stringIcNS7_11char_traitsIcEENS7_9allocatorIcEEEE(ptr noundef nonnull align 8 dereferenceable(24) %9, i32 noundef 300, ptr noundef %7, ptr noundef nonnull @.str.10, i32 noundef 1672, ptr noundef nonnull align 8 dereferenceable(24) %3)
          to label %15 unwind label %16

15:                                               ; preds = %14
  call void @_ZNSt3__112basic_stringIcNS_11char_traitsIcEENS_9allocatorIcEEED1Ev(ptr noundef nonnull align 8 dereferenceable(24) %3) #36
  br label %18

16:                                               ; preds = %14
  %17 = landingpad { ptr, i32 }
          cleanup
  call void @_ZNSt3__112basic_stringIcNS_11char_traitsIcEENS_9allocatorIcEEED1Ev(ptr noundef nonnull align 8 dereferenceable(24) %3) #36
  resume { ptr, i32 } %17

18:                                               ; preds = %6, %10, %15, %2
  ret void
}